; Function Attrs: nounwind uwtable
define internal fastcc { ptr, ptr } @gen_index(ptr %0, ptr %1, ptr %2, ptr %3) unnamed_addr #0 {
  %5 = tail call { ptr, ptr } @gen_subexp(ptr %2, ptr %3) #10
  %6 = extractvalue { ptr, ptr } %5, 0
  %7 = extractvalue { ptr, ptr } %5, 1
  %8 = tail call { ptr, ptr } @block_join(ptr %6, ptr %7, ptr %0, ptr %1) #10
  %9 = extractvalue { ptr, ptr } %8, 0
  %10 = extractvalue { ptr, ptr } %8, 1
  %11 = tail call { ptr, ptr } @gen_op_simple(i32 noundef 10) #10
  %12 = extractvalue { ptr, ptr } %11, 0
  %13 = extractvalue { ptr, ptr } %11, 1
  %14 = tail call { ptr, ptr } @block_join(ptr %9, ptr %10, ptr %12, ptr %13) #10
  ret { ptr, ptr } %14
}